target datalayout = "e-m:e-p270:32:32-p271:32:32-p272:64:64-i64:64-i128:128-f80:128-n8:16:32:64-S128"
target triple = "x86_64-pc-linux-gnu"

%struct.ParseContext_ = type { %struct.TokenData, i32, %union.SourceSpan, %union.SourceSpan, ptr, %struct.Lexer }
%struct.TokenData = type { ptr, i64, %union.anon.86 }
%union.anon.86 = type { %struct.anon.89 }
%struct.anon.89 = type { %struct.Int128_, i8 }
%struct.Int128_ = type { i64, i64 }
%union.SourceSpan = type { i64 }
%struct.Lexer = type { ptr, ptr, ptr, ptr, i32, i32, ptr, ptr, ptr, %struct.TokenData, %union.SourceSpan, i32, i32 }
%struct.Expr_ = type { ptr, %union.SourceSpan, i16, %union.anon.30 }
%union.anon.30 = type { %struct.ExprAnySwitch }
%struct.ExprAnySwitch = type { i8, %union.anon.32 }
%union.anon.32 = type { %struct.anon.33 }
%struct.anon.33 = type { ptr, %union.SourceSpan, ptr }
%struct.Decl_ = type { ptr, ptr, %union.SourceSpan, i64, %union.anon, i32, %union.anon.1, i64, ptr, ptr, ptr, %union.anon.2 }
%union.anon = type { ptr }
%union.anon.1 = type { i16 }
%union.anon.2 = type { %struct.FuncDecl }
%struct.FuncDecl = type { i32, [4 x i8], %struct.Signature_, i32, i32, %union.anon.9 }
%struct.Signature_ = type <{ %struct.CalleeAttributes, i16, i8, i32, i32, [4 x i8], ptr }>
%struct.CalleeAttributes = type { i8 }
%union.anon.9 = type { %struct.anon.10 }
%struct.anon.10 = type { i16, %union.anon.11 }
%union.anon.11 = type { ptr }

@poisoned_expr = external global ptr, align 8

; Function Attrs: nounwind uwtable
define dso_local ptr @parse_decl_or_expr(ptr noundef %0, ptr noundef %1) #0 {
  %3 = alloca ptr, align 8
  %4 = alloca ptr, align 8
  %5 = alloca ptr, align 8
  %6 = alloca i32, align 4
  %7 = alloca ptr, align 8
  %8 = alloca ptr, align 8
  %9 = alloca ptr, align 8
  %10 = alloca ptr, align 8
  %11 = alloca ptr, align 8
  %12 = alloca ptr, align 8
  store ptr %0, ptr %8, align 8
  store ptr %1, ptr %9, align 8
  %13 = load ptr, ptr %8, align 8
  store ptr %13, ptr %5, align 8
  store i32 143, ptr %6, align 4
  %14 = load ptr, ptr %5, align 8
  %15 = getelementptr inbounds %struct.ParseContext_, ptr %14, i32 0, i32 1
  %16 = load i32, ptr %15, align 8
  %17 = load i32, ptr %6, align 4
  %18 = icmp eq i32 %16, %17
  br i1 %18, label %19, label %39

19:                                               ; preds = %2
  %20 = load ptr, ptr %8, align 8
  %21 = call ptr @parse_var_decl(ptr noundef %20)
  store ptr %21, ptr %10, align 8
  %22 = load ptr, ptr %10, align 8
  store ptr %22, ptr %3, align 8
  %23 = load ptr, ptr %3, align 8
  %24 = icmp ne ptr %23, null
  br i1 %24, label %25, label %32

25:                                               ; preds = %19
  %26 = load ptr, ptr %3, align 8
  %27 = getelementptr inbounds %struct.Decl_, ptr %26, i32 0, i32 3
  %28 = load i64, ptr %27, align 8
  %29 = and i64 %28, 127
  %30 = trunc i64 %29 to i32
  %31 = icmp ne i32 %30, 0
  br label %32

32:                                               ; preds = %25, %19
  %33 = phi i1 [ true, %19 ], [ %31, %25 ]
  br i1 %33, label %36, label %34

34:                                               ; preds = %32
  %35 = load ptr, ptr @poisoned_expr, align 8
  store ptr %35, ptr %7, align 8
  br label %73

36:                                               ; preds = %32
  %37 = load ptr, ptr %10, align 8
  %38 = load ptr, ptr %9, align 8
  store ptr %37, ptr %38, align 8
  store ptr null, ptr %7, align 8
  br label %73

39:                                               ; preds = %2
  %40 = load ptr, ptr %8, align 8
  %41 = call ptr @parse_expr(ptr noundef %40)
  store ptr %41, ptr %11, align 8
  %42 = load ptr, ptr %11, align 8
  %43 = getelementptr inbounds %struct.Expr_, ptr %42, i32 0, i32 2
  %44 = load i16, ptr %43, align 8
  %45 = and i16 %44, 255
  %46 = zext i16 %45 to i32
  %47 = icmp ne i32 %46, 62
  br i1 %47, label %48, label %50

48:                                               ; preds = %39
  %49 = load ptr, ptr %11, align 8
  store ptr %49, ptr %7, align 8
  br label %73

50:                                               ; preds = %39
  %51 = load ptr, ptr %8, align 8
  %52 = load ptr, ptr %11, align 8
  %53 = getelementptr inbounds %struct.Expr_, ptr %52, i32 0, i32 3
  %54 = load ptr, ptr %53, align 8
  %55 = call ptr @parse_local_decl_after_type(ptr noundef %51, ptr noundef %54)
  store ptr %55, ptr %12, align 8
  %56 = load ptr, ptr %12, align 8
  store ptr %56, ptr %4, align 8
  %57 = load ptr, ptr %4, align 8
  %58 = icmp ne ptr %57, null
  br i1 %58, label %59, label %66

59:                                               ; preds = %50
  %60 = load ptr, ptr %4, align 8
  %61 = getelementptr inbounds %struct.Decl_, ptr %60, i32 0, i32 3
  %62 = load i64, ptr %61, align 8
  %63 = and i64 %62, 127
  %64 = trunc i64 %63 to i32
  %65 = icmp ne i32 %64, 0
  br label %66

66:                                               ; preds = %59, %50
  %67 = phi i1 [ true, %50 ], [ %65, %59 ]
  br i1 %67, label %70, label %68

68:                                               ; preds = %66
  %69 = load ptr, ptr @poisoned_expr, align 8
  store ptr %69, ptr %7, align 8
  br label %73

70:                                               ; preds = %66
  %71 = load ptr, ptr %12, align 8
  %72 = load ptr, ptr %9, align 8
  store ptr %71, ptr %72, align 8
  store ptr null, ptr %7, align 8
  br label %73

73:                                               ; preds = %70, %68, %48, %36, %34
  %74 = load ptr, ptr %7, align 8
  ret ptr %74
}