; Function Attrs: nounwind uwtable
define dso_local ptr @parse_decl_or_expr(ptr noundef %0, ptr nocapture noundef writeonly %1) local_unnamed_addr #0 {
  %3 = getelementptr inbounds i8, ptr %0, i64 40
  %4 = load i32, ptr %3, align 8
  %5 = icmp eq i32 %4, 143
  br i1 %5, label %6, label %14

6:                                                ; preds = %2
  %7 = tail call ptr @parse_var_decl(ptr noundef nonnull %0)
  %.not25 = icmp eq ptr %7, null
  br i1 %.not25, label %.critedge, label %8

8:                                                ; preds = %6
  %9 = getelementptr inbounds i8, ptr %7, i64 24
  %10 = load i64, ptr %9, align 8
  %11 = and i64 %10, 127
  %.not26 = icmp eq i64 %11, 0
  br i1 %.not26, label %12, label %.critedge

12:                                               ; preds = %8
  %13 = load ptr, ptr @poisoned_expr, align 8
  br label %29

.critedge:                                        ; preds = %6, %8
  store ptr %7, ptr %1, align 8
  br label %29

14:                                               ; preds = %2
  %15 = tail call ptr @parse_expr(ptr noundef nonnull %0) #8
  %16 = getelementptr inbounds i8, ptr %15, i64 16
  %17 = load i16, ptr %16, align 8
  %18 = and i16 %17, 255
  %.not = icmp eq i16 %18, 62
  br i1 %.not, label %19, label %29

19:                                               ; preds = %14
  %20 = getelementptr inbounds i8, ptr %15, i64 24
  %21 = load ptr, ptr %20, align 8
  %22 = tail call ptr @parse_local_decl_after_type(ptr noundef nonnull %0, ptr noundef %21)
  %.not23 = icmp eq ptr %22, null
  br i1 %.not23, label %.critedge2, label %23

23:                                               ; preds = %19
  %24 = getelementptr inbounds i8, ptr %22, i64 24
  %25 = load i64, ptr %24, align 8
  %26 = and i64 %25, 127
  %.not24 = icmp eq i64 %26, 0
  br i1 %.not24, label %27, label %.critedge2

27:                                               ; preds = %23
  %28 = load ptr, ptr @poisoned_expr, align 8
  br label %29

.critedge2:                                       ; preds = %19, %23
  store ptr %22, ptr %1, align 8
  br label %29

29:                                               ; preds = %14, %.critedge2, %27, %.critedge, %12
  %.0 = phi ptr [ null, %.critedge ], [ %13, %12 ], [ null, %.critedge2 ], [ %28, %27 ], [ %15, %14 ]
  ret ptr %.0
}